target datalayout = "e-m:e-p270:32:32-p271:32:32-p272:64:64-i64:64-i128:128-f80:128-n8:16:32:64-S128"
target triple = "x86_64-pc-linux-gnu"

@.str.1 = private unnamed_addr constant [7 x i8] c"%s%d%s\00", align 1
@.str.2 = private unnamed_addr constant [2 x i8] c"@\00", align 1
@.str.3 = private unnamed_addr constant [4 x i8] c"pct\00", align 1
@.str.4 = private unnamed_addr constant [2 x i8] c"x\00", align 1
@.str.5 = private unnamed_addr constant [5 x i8] c"%s%s\00", align 1
@.str.6 = private unnamed_addr constant [9 x i8] c"%.*s%s%s\00", align 1
@.str.7 = private unnamed_addr constant [2 x i8] c"r\00", align 1

; Function Attrs: nounwind uwtable
define hidden void @cleanUp(ptr noundef %0, ptr noundef %1, ptr noundef %2, ptr noundef %3) #0 {
  %5 = alloca ptr, align 8
  %6 = alloca ptr, align 8
  %7 = alloca ptr, align 8
  %8 = alloca ptr, align 8
  store ptr %0, ptr %5, align 8
  store ptr %1, ptr %6, align 8
  store ptr %2, ptr %7, align 8
  store ptr %3, ptr %8, align 8
  %9 = load ptr, ptr %8, align 8
  store float 1.000000e+00, ptr %9, align 4
  %10 = load ptr, ptr %5, align 8
  call void @free(ptr noundef %10) #7
  %11 = load ptr, ptr %6, align 8
  call void @free(ptr noundef %11) #7
  %12 = load ptr, ptr %7, align 8
  call void @free(ptr noundef %12) #7
  ret void
}

; Function Attrs: nounwind uwtable
define hidden zeroext i8 @GetScaledImageName(ptr noundef %0, ptr noundef %1, ptr noundef %2, i64 noundef %3) #0 {
  %5 = alloca i8, align 1
  %6 = alloca ptr, align 8
  %7 = alloca ptr, align 8
  %8 = alloca ptr, align 8
  %9 = alloca i64, align 8
  %10 = alloca ptr, align 8
  %11 = alloca [1024 x i8], align 16
  %12 = alloca [1024 x i8], align 16
  %13 = alloca ptr, align 8
  %14 = alloca ptr, align 8
  %15 = alloca ptr, align 8
  %16 = alloca ptr, align 8
  %17 = alloca i64, align 8
  %18 = alloca i64, align 8
  %19 = alloca i32, align 4
  %20 = alloca i32, align 4
  %21 = alloca i8, align 1
  %22 = alloca i32, align 4
  store ptr %0, ptr %6, align 8
  store ptr %1, ptr %7, align 8
  store ptr %2, ptr %8, align 8
  store i64 %3, ptr %9, align 8
  %23 = load ptr, ptr %8, align 8
  %24 = load float, ptr %23, align 4
  %25 = fpext float %24 to double
  %26 = fcmp ogt double %25, 1.000000e+00
  br i1 %26, label %27, label %246

27:                                               ; preds = %4
  store ptr null, ptr %10, align 8
  store ptr null, ptr %13, align 8
  %28 = load i64, ptr %9, align 8
  %29 = call noalias ptr @malloc(i64 noundef %28) #8
  store ptr %29, ptr %14, align 8
  %30 = load ptr, ptr %6, align 8
  %31 = call noalias ptr @strdup(ptr noundef %30) #7
  store ptr %31, ptr %15, align 8
  %32 = load ptr, ptr %15, align 8
  %33 = call ptr @strrchr(ptr noundef %32, i32 noundef 46) #9
  store ptr %33, ptr %16, align 8
  store i64 0, ptr %17, align 8
  store i64 0, ptr %18, align 8
  store i32 0, ptr %19, align 4
  store i32 0, ptr %20, align 4
  %34 = load ptr, ptr %8, align 8
  %35 = load float, ptr %34, align 4
  %36 = fmul float %35, 1.000000e+02
  %37 = load ptr, ptr %8, align 8
  %38 = load float, ptr %37, align 4
  %39 = fptosi float %38 to i32
  %40 = mul nsw i32 %39, 100
  %41 = sitofp i32 %40 to float
  %42 = fcmp une float %36, %41
  %43 = zext i1 %42 to i32
  %44 = trunc i32 %43 to i8
  store i8 %44, ptr %21, align 1
  %45 = getelementptr inbounds [1024 x i8], ptr %11, i64 0, i64 0
  %46 = load ptr, ptr %8, align 8
  %47 = load float, ptr %46, align 4
  %48 = fmul float %47, 1.000000e+02
  %49 = fptosi float %48 to i32
  %50 = call i32 (ptr, i64, ptr, ...) @snprintf(ptr noundef %45, i64 noundef 1024, ptr noundef @.str.1, ptr noundef @.str.2, i32 noundef %49, ptr noundef @.str.3) #7
  %51 = load i8, ptr %21, align 1
  %52 = icmp ne i8 %51, 0
  br i1 %52, label %61, label %53

53:                                               ; preds = %27
  %54 = load i64, ptr %9, align 8
  %55 = call noalias ptr @malloc(i64 noundef %54) #8
  store ptr %55, ptr %13, align 8
  %56 = getelementptr inbounds [1024 x i8], ptr %12, i64 0, i64 0
  %57 = load ptr, ptr %8, align 8
  %58 = load float, ptr %57, align 4
  %59 = fptosi float %58 to i32
  %60 = call i32 (ptr, i64, ptr, ...) @snprintf(ptr noundef %56, i64 noundef 1024, ptr noundef @.str.1, ptr noundef @.str.2, i32 noundef %59, ptr noundef @.str.4) #7
  br label %61

61:                                               ; preds = %53, %27
  %62 = load ptr, ptr %16, align 8
  %63 = icmp eq ptr %62, null
  br i1 %63, label %64, label %131

64:                                               ; preds = %61
  %65 = load ptr, ptr %15, align 8
  %66 = call i64 @strlen(ptr noundef %65) #9
  %67 = getelementptr inbounds [1024 x i8], ptr %11, i64 0, i64 0
  %68 = call i64 @strlen(ptr noundef %67) #9
  %69 = add i64 %66, %68
  %70 = add i64 %69, 1
  store i64 %70, ptr %17, align 8
  %71 = load i8, ptr %21, align 1
  %72 = icmp ne i8 %71, 0
  br i1 %72, label %80, label %73

73:                                               ; preds = %64
  %74 = load ptr, ptr %15, align 8
  %75 = call i64 @strlen(ptr noundef %74) #9
  %76 = getelementptr inbounds [1024 x i8], ptr %12, i64 0, i64 0
  %77 = call i64 @strlen(ptr noundef %76) #9
  %78 = add i64 %75, %77
  %79 = add i64 %78, 1
  store i64 %79, ptr %18, align 8
  br label %80

80:                                               ; preds = %73, %64
  %81 = load i64, ptr %17, align 8
  %82 = load i64, ptr %9, align 8
  %83 = icmp ugt i64 %81, %82
  br i1 %83, label %88, label %84

84:                                               ; preds = %80
  %85 = load i64, ptr %18, align 8
  %86 = load i64, ptr %9, align 8
  %87 = icmp ugt i64 %85, %86
  br i1 %87, label %88, label %93

88:                                               ; preds = %84, %80
  %89 = load ptr, ptr %15, align 8
  %90 = load ptr, ptr %13, align 8
  %91 = load ptr, ptr %14, align 8
  %92 = load ptr, ptr %8, align 8
  call void @cleanUp(ptr noundef %89, ptr noundef %90, ptr noundef %91, ptr noundef %92)
  store i8 0, ptr %5, align 1
  br label %247

93:                                               ; preds = %84
  %94 = load ptr, ptr %14, align 8
  %95 = load i64, ptr %17, align 8
  %96 = load ptr, ptr %15, align 8
  %97 = getelementptr inbounds [1024 x i8], ptr %11, i64 0, i64 0
  %98 = call i32 (ptr, i64, ptr, ...) @snprintf(ptr noundef %94, i64 noundef %95, ptr noundef @.str.5, ptr noundef %96, ptr noundef %97) #7
  store i32 %98, ptr %19, align 4
  %99 = load i8, ptr %21, align 1
  %100 = icmp ne i8 %99, 0
  br i1 %100, label %107, label %101

101:                                              ; preds = %93
  %102 = load ptr, ptr %13, align 8
  %103 = load i64, ptr %18, align 8
  %104 = load ptr, ptr %15, align 8
  %105 = getelementptr inbounds [1024 x i8], ptr %12, i64 0, i64 0
  %106 = call i32 (ptr, i64, ptr, ...) @snprintf(ptr noundef %102, i64 noundef %103, ptr noundef @.str.5, ptr noundef %104, ptr noundef %105) #7
  store i32 %106, ptr %20, align 4
  br label %107

107:                                              ; preds = %101, %93
  %108 = load i32, ptr %19, align 4
  %109 = icmp slt i32 %108, 0
  br i1 %109, label %125, label %110

110:                                              ; preds = %107
  %111 = load i32, ptr %19, align 4
  %112 = sext i32 %111 to i64
  %113 = load i64, ptr %17, align 8
  %114 = sub i64 %113, 1
  %115 = icmp ugt i64 %112, %114
  br i1 %115, label %125, label %116

116:                                              ; preds = %110
  %117 = load i32, ptr %20, align 4
  %118 = icmp slt i32 %117, 0
  br i1 %118, label %125, label %119

119:                                              ; preds = %116
  %120 = load i32, ptr %20, align 4
  %121 = sext i32 %120 to i64
  %122 = load i64, ptr %18, align 8
  %123 = sub i64 %122, 1
  %124 = icmp ugt i64 %121, %123
  br i1 %124, label %125, label %130

125:                                              ; preds = %119, %116, %110, %107
  %126 = load ptr, ptr %15, align 8
  %127 = load ptr, ptr %13, align 8
  %128 = load ptr, ptr %14, align 8
  %129 = load ptr, ptr %8, align 8
  call void @cleanUp(ptr noundef %126, ptr noundef %127, ptr noundef %128, ptr noundef %129)
  store i8 0, ptr %5, align 1
  br label %247

130:                                              ; preds = %119
  br label %214

131:                                              ; preds = %61
  %132 = load ptr, ptr %16, align 8
  %133 = load ptr, ptr %15, align 8
  %134 = ptrtoint ptr %132 to i64
  %135 = ptrtoint ptr %133 to i64
  %136 = sub i64 %134, %135
  %137 = trunc i64 %136 to i32
  store i32 %137, ptr %22, align 4
  %138 = load i32, ptr %22, align 4
  %139 = sext i32 %138 to i64
  %140 = getelementptr inbounds [1024 x i8], ptr %11, i64 0, i64 0
  %141 = call i64 @strlen(ptr noundef %140) #9
  %142 = add i64 %139, %141
  %143 = load ptr, ptr %16, align 8
  %144 = call i64 @strlen(ptr noundef %143) #9
  %145 = add i64 %142, %144
  %146 = add i64 %145, 1
  store i64 %146, ptr %17, align 8
  %147 = load i8, ptr %21, align 1
  %148 = icmp ne i8 %147, 0
  br i1 %148, label %159, label %149

149:                                              ; preds = %131
  %150 = load i32, ptr %22, align 4
  %151 = sext i32 %150 to i64
  %152 = getelementptr inbounds [1024 x i8], ptr %12, i64 0, i64 0
  %153 = call i64 @strlen(ptr noundef %152) #9
  %154 = add i64 %151, %153
  %155 = load ptr, ptr %16, align 8
  %156 = call i64 @strlen(ptr noundef %155) #9
  %157 = add i64 %154, %156
  %158 = add i64 %157, 1
  store i64 %158, ptr %18, align 8
  br label %159

159:                                              ; preds = %149, %131
  %160 = load i64, ptr %17, align 8
  %161 = load i64, ptr %9, align 8
  %162 = icmp ugt i64 %160, %161
  br i1 %162, label %167, label %163

163:                                              ; preds = %159
  %164 = load i64, ptr %18, align 8
  %165 = load i64, ptr %9, align 8
  %166 = icmp ugt i64 %164, %165
  br i1 %166, label %167, label %172

167:                                              ; preds = %163, %159
  %168 = load ptr, ptr %15, align 8
  %169 = load ptr, ptr %13, align 8
  %170 = load ptr, ptr %14, align 8
  %171 = load ptr, ptr %8, align 8
  call void @cleanUp(ptr noundef %168, ptr noundef %169, ptr noundef %170, ptr noundef %171)
  store i8 0, ptr %5, align 1
  br label %247

172:                                              ; preds = %163
  %173 = load ptr, ptr %14, align 8
  %174 = load i64, ptr %17, align 8
  %175 = load i32, ptr %22, align 4
  %176 = load ptr, ptr %15, align 8
  %177 = getelementptr inbounds [1024 x i8], ptr %11, i64 0, i64 0
  %178 = load ptr, ptr %16, align 8
  %179 = call i32 (ptr, i64, ptr, ...) @snprintf(ptr noundef %173, i64 noundef %174, ptr noundef @.str.6, i32 noundef %175, ptr noundef %176, ptr noundef %177, ptr noundef %178) #7
  store i32 %179, ptr %19, align 4
  %180 = load i8, ptr %21, align 1
  %181 = icmp ne i8 %180, 0
  br i1 %181, label %190, label %182

182:                                              ; preds = %172
  %183 = load ptr, ptr %13, align 8
  %184 = load i64, ptr %18, align 8
  %185 = load i32, ptr %22, align 4
  %186 = load ptr, ptr %15, align 8
  %187 = getelementptr inbounds [1024 x i8], ptr %12, i64 0, i64 0
  %188 = load ptr, ptr %16, align 8
  %189 = call i32 (ptr, i64, ptr, ...) @snprintf(ptr noundef %183, i64 noundef %184, ptr noundef @.str.6, i32 noundef %185, ptr noundef %186, ptr noundef %187, ptr noundef %188) #7
  store i32 %189, ptr %20, align 4
  br label %190

190:                                              ; preds = %182, %172
  %191 = load i32, ptr %19, align 4
  %192 = icmp slt i32 %191, 0
  br i1 %192, label %208, label %193

193:                                              ; preds = %190
  %194 = load i32, ptr %19, align 4
  %195 = sext i32 %194 to i64
  %196 = load i64, ptr %17, align 8
  %197 = sub i64 %196, 1
  %198 = icmp ugt i64 %195, %197
  br i1 %198, label %208, label %199

199:                                              ; preds = %193
  %200 = load i32, ptr %20, align 4
  %201 = icmp slt i32 %200, 0
  br i1 %201, label %208, label %202

202:                                              ; preds = %199
  %203 = load i32, ptr %20, align 4
  %204 = sext i32 %203 to i64
  %205 = load i64, ptr %18, align 8
  %206 = sub i64 %205, 1
  %207 = icmp ugt i64 %204, %206
  br i1 %207, label %208, label %213

208:                                              ; preds = %202, %199, %193, %190
  %209 = load ptr, ptr %15, align 8
  %210 = load ptr, ptr %13, align 8
  %211 = load ptr, ptr %14, align 8
  %212 = load ptr, ptr %8, align 8
  call void @cleanUp(ptr noundef %209, ptr noundef %210, ptr noundef %211, ptr noundef %212)
  store i8 0, ptr %5, align 1
  br label %247

213:                                              ; preds = %202
  br label %214

214:                                              ; preds = %213, %130
  %215 = load ptr, ptr %15, align 8
  call void @free(ptr noundef %215) #7
  %216 = load ptr, ptr %14, align 8
  %217 = call noalias ptr @fopen64(ptr noundef %216, ptr noundef @.str.7)
  store ptr %217, ptr %10, align 8
  %218 = icmp ne ptr %217, null
  br i1 %218, label %238, label %219

219:                                              ; preds = %214
  %220 = load i8, ptr %21, align 1
  %221 = icmp ne i8 %220, 0
  br i1 %221, label %234, label %222

222:                                              ; preds = %219
  %223 = load ptr, ptr %13, align 8
  %224 = call noalias ptr @fopen64(ptr noundef %223, ptr noundef @.str.7)
  store ptr %224, ptr %10, align 8
  %225 = icmp ne ptr %224, null
  br i1 %225, label %226, label %234

226:                                              ; preds = %222
  %227 = load ptr, ptr %10, align 8
  %228 = call i32 @fclose(ptr noundef %227)
  %229 = load ptr, ptr %7, align 8
  %230 = load ptr, ptr %13, align 8
  %231 = call ptr @strcpy(ptr noundef %229, ptr noundef %230) #7
  %232 = load ptr, ptr %13, align 8
  call void @free(ptr noundef %232) #7
  %233 = load ptr, ptr %14, align 8
  call void @free(ptr noundef %233) #7
  store i8 1, ptr %5, align 1
  br label %247

234:                                              ; preds = %222, %219
  %235 = load ptr, ptr %13, align 8
  %236 = load ptr, ptr %14, align 8
  %237 = load ptr, ptr %8, align 8
  call void @cleanUp(ptr noundef null, ptr noundef %235, ptr noundef %236, ptr noundef %237)
  store i8 0, ptr %5, align 1
  br label %247

238:                                              ; preds = %214
  %239 = load ptr, ptr %10, align 8
  %240 = call i32 @fclose(ptr noundef %239)
  %241 = load ptr, ptr %7, align 8
  %242 = load ptr, ptr %14, align 8
  %243 = call ptr @strcpy(ptr noundef %241, ptr noundef %242) #7
  %244 = load ptr, ptr %13, align 8
  call void @free(ptr noundef %244) #7
  %245 = load ptr, ptr %14, align 8
  call void @free(ptr noundef %245) #7
  store i8 1, ptr %5, align 1
  br label %247

246:                                              ; preds = %4
  store i8 0, ptr %5, align 1
  br label %247

247:                                              ; preds = %246, %238, %234, %226, %208, %167, %125, %88
  %248 = load i8, ptr %5, align 1
  ret i8 %248
}