; Function Attrs: nounwind uwtable
define hidden zeroext range(i8 0, 2) i8 @GetScaledImageName(ptr nocapture noundef readonly %0, ptr noundef %1, ptr nocapture noundef %2, i64 noundef %3) local_unnamed_addr #2 {
  %5 = alloca [1024 x i8], align 16
  %6 = alloca [1024 x i8], align 16
  %7 = load float, ptr %2, align 4
  %8 = fcmp ogt float %7, 1.000000e+00
  br i1 %8, label %9, label %99

9:                                                ; preds = %4
  %10 = tail call noalias ptr @malloc(i64 noundef %3) #21
  %11 = tail call noalias ptr @strdup(ptr noundef %0) #20
  %12 = tail call ptr @strrchr(ptr noundef nonnull dereferenceable(1) %11, i32 noundef 46) #22
  %13 = fmul float %7, 1.000000e+02
  %14 = fptosi float %7 to i32
  %15 = mul nsw i32 %14, 100
  %16 = sitofp i32 %15 to float
  %17 = fcmp une float %13, %16
  %18 = fptosi float %13 to i32
  %19 = call i32 (ptr, i64, ptr, ...) @snprintf(ptr noundef nonnull dereferenceable(1) %5, i64 noundef 1024, ptr noundef nonnull @.str.1, ptr noundef nonnull @.str.2, i32 noundef %18, ptr noundef nonnull @.str.3) #20
  br i1 %17, label %25, label %20

20:                                               ; preds = %9
  %21 = tail call noalias ptr @malloc(i64 noundef %3) #21
  %22 = load float, ptr %2, align 4
  %23 = fptosi float %22 to i32
  %24 = call i32 (ptr, i64, ptr, ...) @snprintf(ptr noundef nonnull dereferenceable(1) %6, i64 noundef 1024, ptr noundef nonnull @.str.1, ptr noundef nonnull @.str.2, i32 noundef %23, ptr noundef nonnull @.str.4) #20
  br label %25

25:                                               ; preds = %20, %9
  %.098 = phi ptr [ null, %9 ], [ %21, %20 ]
  %26 = icmp eq ptr %12, null
  br i1 %26, label %27, label %54

27:                                               ; preds = %25
  %28 = tail call i64 @strlen(ptr noundef nonnull dereferenceable(1) %11) #22
  %29 = call i64 @strlen(ptr noundef nonnull dereferenceable(1) %5) #22
  %30 = add i64 %29, %28
  %31 = add i64 %30, 1
  br i1 %17, label %36, label %32

32:                                               ; preds = %27
  %33 = call i64 @strlen(ptr noundef nonnull dereferenceable(1) %6) #22
  %34 = add i64 %28, 1
  %35 = add i64 %34, %33
  br label %36

36:                                               ; preds = %32, %27
  %.096 = phi i64 [ 0, %27 ], [ %35, %32 ]
  %37 = icmp ugt i64 %31, %3
  %38 = icmp ugt i64 %.096, %3
  %or.cond109 = select i1 %37, i1 true, i1 %38
  br i1 %or.cond109, label %39, label %40

39:                                               ; preds = %36
  store float 1.000000e+00, ptr %2, align 4
  tail call void @free(ptr noundef %11) #20
  tail call void @free(ptr noundef %.098) #20
  tail call void @free(ptr noundef %10) #20
  br label %99

40:                                               ; preds = %36
  %41 = call i32 (ptr, i64, ptr, ...) @snprintf(ptr noundef %10, i64 noundef %31, ptr noundef nonnull @.str.5, ptr noundef %11, ptr noundef nonnull %5) #20
  br i1 %17, label %44, label %42

42:                                               ; preds = %40
  %43 = call i32 (ptr, i64, ptr, ...) @snprintf(ptr noundef %.098, i64 noundef %.096, ptr noundef nonnull @.str.5, ptr noundef %11, ptr noundef nonnull %6) #20
  br label %44

44:                                               ; preds = %42, %40
  %.095 = phi i32 [ 0, %40 ], [ %43, %42 ]
  %45 = icmp slt i32 %41, 0
  br i1 %45, label %53, label %46

46:                                               ; preds = %44
  %47 = zext nneg i32 %41 to i64
  %48 = icmp ult i64 %30, %47
  %49 = icmp slt i32 %.095, 0
  %or.cond = or i1 %48, %49
  %50 = zext nneg i32 %.095 to i64
  %51 = add i64 %.096, -1
  %52 = icmp ult i64 %51, %50
  %or.cond112 = select i1 %or.cond, i1 true, i1 %52
  br i1 %or.cond112, label %53, label %87

53:                                               ; preds = %46, %44
  store float 1.000000e+00, ptr %2, align 4
  call void @free(ptr noundef %11) #20
  call void @free(ptr noundef %.098) #20
  call void @free(ptr noundef %10) #20
  br label %99

54:                                               ; preds = %25
  %55 = ptrtoint ptr %12 to i64
  %56 = ptrtoint ptr %11 to i64
  %57 = sub i64 %55, %56
  %58 = trunc i64 %57 to i32
  %sext = shl i64 %57, 32
  %59 = ashr exact i64 %sext, 32
  %60 = call i64 @strlen(ptr noundef nonnull dereferenceable(1) %5) #22
  %61 = tail call i64 @strlen(ptr noundef nonnull dereferenceable(1) %12) #22
  %62 = add i64 %61, %59
  %63 = add i64 %62, %60
  %64 = add i64 %63, 1
  br i1 %17, label %69, label %65

65:                                               ; preds = %54
  %66 = call i64 @strlen(ptr noundef nonnull dereferenceable(1) %6) #22
  %67 = add i64 %62, 1
  %68 = add i64 %67, %66
  br label %69

69:                                               ; preds = %65, %54
  %.197 = phi i64 [ 0, %54 ], [ %68, %65 ]
  %70 = icmp ugt i64 %64, %3
  %71 = icmp ugt i64 %.197, %3
  %or.cond113 = select i1 %70, i1 true, i1 %71
  br i1 %or.cond113, label %72, label %73

72:                                               ; preds = %69
  store float 1.000000e+00, ptr %2, align 4
  tail call void @free(ptr noundef %11) #20
  tail call void @free(ptr noundef %.098) #20
  tail call void @free(ptr noundef %10) #20
  br label %99

73:                                               ; preds = %69
  %74 = call i32 (ptr, i64, ptr, ...) @snprintf(ptr noundef %10, i64 noundef %64, ptr noundef nonnull @.str.6, i32 noundef %58, ptr noundef %11, ptr noundef nonnull %5, ptr noundef nonnull %12) #20
  br i1 %17, label %77, label %75

75:                                               ; preds = %73
  %76 = call i32 (ptr, i64, ptr, ...) @snprintf(ptr noundef %.098, i64 noundef %.197, ptr noundef nonnull @.str.6, i32 noundef %58, ptr noundef %11, ptr noundef nonnull %6, ptr noundef nonnull %12) #20
  br label %77

77:                                               ; preds = %75, %73
  %.1 = phi i32 [ 0, %73 ], [ %76, %75 ]
  %78 = icmp slt i32 %74, 0
  br i1 %78, label %86, label %79

79:                                               ; preds = %77
  %80 = zext nneg i32 %74 to i64
  %81 = icmp ult i64 %63, %80
  %82 = icmp slt i32 %.1, 0
  %or.cond3 = or i1 %81, %82
  %83 = zext nneg i32 %.1 to i64
  %84 = add i64 %.197, -1
  %85 = icmp ult i64 %84, %83
  %or.cond116 = select i1 %or.cond3, i1 true, i1 %85
  br i1 %or.cond116, label %86, label %87

86:                                               ; preds = %79, %77
  store float 1.000000e+00, ptr %2, align 4
  call void @free(ptr noundef %11) #20
  call void @free(ptr noundef %.098) #20
  call void @free(ptr noundef %10) #20
  br label %99

87:                                               ; preds = %79, %46
  call void @free(ptr noundef %11) #20
  %88 = call noalias ptr @fopen64(ptr noundef %10, ptr noundef nonnull @.str.7)
  %.not = icmp eq ptr %88, null
  br i1 %.not, label %89, label %96

89:                                               ; preds = %87
  br i1 %17, label %95, label %90

90:                                               ; preds = %89
  %91 = call noalias ptr @fopen64(ptr noundef %.098, ptr noundef nonnull @.str.7)
  %.not108 = icmp eq ptr %91, null
  br i1 %.not108, label %95, label %92

92:                                               ; preds = %90
  %93 = call i32 @fclose(ptr noundef nonnull %91)
  %94 = call ptr @strcpy(ptr noundef nonnull dereferenceable(1) %1, ptr noundef nonnull dereferenceable(1) %.098) #20
  call void @free(ptr noundef %.098) #20
  call void @free(ptr noundef %10) #20
  br label %99

95:                                               ; preds = %90, %89
  store float 1.000000e+00, ptr %2, align 4
  call void @free(ptr noundef %.098) #20
  call void @free(ptr noundef %10) #20
  br label %99

96:                                               ; preds = %87
  %97 = call i32 @fclose(ptr noundef nonnull %88)
  %98 = call ptr @strcpy(ptr noundef nonnull dereferenceable(1) %1, ptr noundef nonnull dereferenceable(1) %10) #20
  call void @free(ptr noundef %.098) #20
  call void @free(ptr noundef %10) #20
  br label %99

99:                                               ; preds = %4, %96, %95, %92, %86, %72, %53, %39
  %.0 = phi i8 [ 0, %39 ], [ 0, %53 ], [ 1, %96 ], [ 0, %95 ], [ 1, %92 ], [ 0, %72 ], [ 0, %86 ], [ 0, %4 ]
  ret i8 %.0
}